target datalayout = "e-m:e-p270:32:32-p271:32:32-p272:64:64-i64:64-i128:128-f80:128-n8:16:32:64-S128"
target triple = "x86_64-pc-linux-gnu"

%struct._string_string = type { ptr, ptr }
%struct._packet_info = type { ptr, ptr, i32, i32, %struct.nstime_t, %struct.nstime_t, %struct.nstime_t, i8, ptr, ptr, ptr, ptr, %struct._address, %struct._address, %struct._address, %struct._address, %struct._address, %struct._address, i32, ptr, i8, [3 x i8], %struct.anon, i32, i32, i32, i32, ptr, i8, ptr, ptr, i16, i16, i32, i32, i16, i32, i32, ptr, ptr, ptr, i8, i8, i16, i16, i16, i32, i16, i16, ptr, ptr, ptr, ptr, ptr, i32, i32 }
%struct.nstime_t = type { i64, i32 }
%struct._address = type { i32, i32, ptr, ptr }
%struct.anon = type { i8, [3 x i8] }

@hf_nano_magic_number = internal global i32 0, align 4
@hf_nano_version_max = internal global i32 0, align 4
@hf_nano_version_using = internal global i32 0, align 4
@hf_nano_version_min = internal global i32 0, align 4
@hf_nano_packet_type = internal global i32 0, align 4
@hf_nano_extensions = internal global i32 0, align 4
@ett_nano_header = internal global i32 0, align 4
@ett_nano_extensions = internal global i32 0, align 4
@.str.98 = private unnamed_addr constant [8 x i8] c"%s (%s)\00", align 1
@dissect_nano_header.nano_extensions = internal constant [2 x ptr] [ptr @hf_nano_extensions_block_type, ptr null], align 16
@.str.101 = private unnamed_addr constant [21 x i8] c"Nano Protocol Header\00", align 1
@nano_magic_numbers = internal constant [4 x %struct._string_string] [%struct._string_string { ptr @.str.103, ptr @.str.104 }, %struct._string_string { ptr @.str.105, ptr @.str.106 }, %struct._string_string { ptr @.str.107, ptr @.str.108 }, %struct._string_string zeroinitializer], align 16
@.str.102 = private unnamed_addr constant [8 x i8] c"Unknown\00", align 1

; Function Attrs: null_pointer_is_valid sspstrong uwtable
define internal i32 @dissect_nano_header(ptr noundef %0, ptr noundef %1, ptr noundef %2, i32 noundef %3, ptr noundef %4, ptr noundef %5) #0 {
  %7 = alloca ptr, align 8
  %8 = alloca ptr, align 8
  %9 = alloca ptr, align 8
  %10 = alloca i32, align 4
  %11 = alloca ptr, align 8
  %12 = alloca ptr, align 8
  %13 = alloca ptr, align 8
  %14 = alloca ptr, align 8
  store ptr %0, ptr %7, align 8
  store ptr %1, ptr %8, align 8
  store ptr %2, ptr %9, align 8
  store i32 %3, ptr %10, align 4
  store ptr %4, ptr %11, align 8
  store ptr %5, ptr %12, align 8
  call void @llvm.lifetime.start.p0(i64 8, ptr %13) #8
  call void @llvm.lifetime.start.p0(i64 8, ptr %14) #8
  %15 = load ptr, ptr %9, align 8
  %16 = load ptr, ptr %7, align 8
  %17 = load i32, ptr %10, align 4
  %18 = load i32, ptr @ett_nano_header, align 4
  %19 = call ptr @proto_tree_add_subtree(ptr noundef %15, ptr noundef %16, i32 noundef %17, i32 noundef 8, i32 noundef %18, ptr noundef null, ptr noundef @.str.101)
  store ptr %19, ptr %13, align 8
  %20 = load ptr, ptr %8, align 8
  %21 = getelementptr inbounds nuw %struct._packet_info, ptr %20, i32 0, i32 51
  %22 = load ptr, ptr %21, align 8
  %23 = load ptr, ptr %7, align 8
  %24 = load i32, ptr %10, align 4
  %25 = call ptr @tvb_get_string_enc(ptr noundef %22, ptr noundef %23, i32 noundef %24, i32 noundef 2, i32 noundef 0)
  store ptr %25, ptr %14, align 8
  %26 = load ptr, ptr %13, align 8
  %27 = load i32, ptr @hf_nano_magic_number, align 4
  %28 = load ptr, ptr %7, align 8
  %29 = load ptr, ptr %14, align 8
  %30 = load ptr, ptr %14, align 8
  %31 = call ptr @str_to_str(ptr noundef %30, ptr noundef @nano_magic_numbers, ptr noundef @.str.102)
  %32 = load ptr, ptr %14, align 8
  %33 = call ptr (ptr, i32, ptr, i32, i32, ptr, ptr, ...) @proto_tree_add_string_format_value(ptr noundef %26, i32 noundef %27, ptr noundef %28, i32 noundef 0, i32 noundef 2, ptr noundef %29, ptr noundef @.str.98, ptr noundef %31, ptr noundef %32)
  %34 = load i32, ptr %10, align 4
  %35 = add i32 %34, 2
  store i32 %35, ptr %10, align 4
  %36 = load ptr, ptr %13, align 8
  %37 = load i32, ptr @hf_nano_version_max, align 4
  %38 = load ptr, ptr %7, align 8
  %39 = load i32, ptr %10, align 4
  %40 = call ptr @proto_tree_add_item(ptr noundef %36, i32 noundef %37, ptr noundef %38, i32 noundef %39, i32 noundef 1, i32 noundef 0)
  %41 = load i32, ptr %10, align 4
  %42 = add i32 %41, 1
  store i32 %42, ptr %10, align 4
  %43 = load ptr, ptr %13, align 8
  %44 = load i32, ptr @hf_nano_version_using, align 4
  %45 = load ptr, ptr %7, align 8
  %46 = load i32, ptr %10, align 4
  %47 = call ptr @proto_tree_add_item(ptr noundef %43, i32 noundef %44, ptr noundef %45, i32 noundef %46, i32 noundef 1, i32 noundef 0)
  %48 = load i32, ptr %10, align 4
  %49 = add i32 %48, 1
  store i32 %49, ptr %10, align 4
  %50 = load ptr, ptr %13, align 8
  %51 = load i32, ptr @hf_nano_version_min, align 4
  %52 = load ptr, ptr %7, align 8
  %53 = load i32, ptr %10, align 4
  %54 = call ptr @proto_tree_add_item(ptr noundef %50, i32 noundef %51, ptr noundef %52, i32 noundef %53, i32 noundef 1, i32 noundef 0)
  %55 = load i32, ptr %10, align 4
  %56 = add i32 %55, 1
  store i32 %56, ptr %10, align 4
  %57 = load ptr, ptr %13, align 8
  %58 = load i32, ptr @hf_nano_packet_type, align 4
  %59 = load ptr, ptr %7, align 8
  %60 = load i32, ptr %10, align 4
  %61 = load ptr, ptr %11, align 8
  %62 = call ptr @proto_tree_add_item_ret_uint(ptr noundef %57, i32 noundef %58, ptr noundef %59, i32 noundef %60, i32 noundef 1, i32 noundef 0, ptr noundef %61)
  %63 = load i32, ptr %10, align 4
  %64 = add i32 %63, 1
  store i32 %64, ptr %10, align 4
  %65 = load ptr, ptr %13, align 8
  %66 = load ptr, ptr %7, align 8
  %67 = load i32, ptr %10, align 4
  %68 = load i32, ptr @hf_nano_extensions, align 4
  %69 = load i32, ptr @ett_nano_extensions, align 4
  %70 = load ptr, ptr %12, align 8
  %71 = call ptr @proto_tree_add_bitmask_ret_uint64(ptr noundef %65, ptr noundef %66, i32 noundef %67, i32 noundef %68, i32 noundef %69, ptr noundef @dissect_nano_header.nano_extensions, i32 noundef -2147483648, ptr noundef %70)
  %72 = load i32, ptr %10, align 4
  %73 = add i32 %72, 2
  store i32 %73, ptr %10, align 4
  %74 = load i32, ptr %10, align 4
  call void @llvm.lifetime.end.p0(i64 8, ptr %14) #8
  call void @llvm.lifetime.end.p0(i64 8, ptr %13) #8
  ret i32 %74
}