; Function Attrs: null_pointer_is_valid sspstrong uwtable
define internal fastcc void @dissect_nano_header(ptr noundef %0, ptr noundef readonly captures(none) %1, ptr noundef %2, ptr noundef %3, ptr noundef %4) unnamed_addr #0 {
  %6 = load i32, ptr @ett_nano_header, align 4
  %7 = tail call ptr @proto_tree_add_subtree(ptr noundef %2, ptr noundef %0, i32 noundef 0, i32 noundef 8, i32 noundef %6, ptr noundef null, ptr noundef nonnull @.str.101)
  %8 = getelementptr inbounds nuw i8, ptr %1, i64 408
  %9 = load ptr, ptr %8, align 8
  %10 = tail call ptr @tvb_get_string_enc(ptr noundef %9, ptr noundef %0, i32 noundef 0, i32 noundef 2, i32 noundef 0)
  %11 = load i32, ptr @hf_nano_magic_number, align 4
  %12 = tail call ptr @str_to_str(ptr noundef %10, ptr noundef nonnull @nano_magic_numbers, ptr noundef nonnull @.str.102)
  %13 = tail call ptr (ptr, i32, ptr, i32, i32, ptr, ptr, ...) @proto_tree_add_string_format_value(ptr noundef %7, i32 noundef %11, ptr noundef %0, i32 noundef 0, i32 noundef 2, ptr noundef %10, ptr noundef nonnull @.str.98, ptr noundef %12, ptr noundef %10)
  %14 = load i32, ptr @hf_nano_version_max, align 4
  %15 = tail call ptr @proto_tree_add_item(ptr noundef %7, i32 noundef %14, ptr noundef %0, i32 noundef 2, i32 noundef 1, i32 noundef 0)
  %16 = load i32, ptr @hf_nano_version_using, align 4
  %17 = tail call ptr @proto_tree_add_item(ptr noundef %7, i32 noundef %16, ptr noundef %0, i32 noundef 3, i32 noundef 1, i32 noundef 0)
  %18 = load i32, ptr @hf_nano_version_min, align 4
  %19 = tail call ptr @proto_tree_add_item(ptr noundef %7, i32 noundef %18, ptr noundef %0, i32 noundef 4, i32 noundef 1, i32 noundef 0)
  %20 = load i32, ptr @hf_nano_packet_type, align 4
  %21 = tail call ptr @proto_tree_add_item_ret_uint(ptr noundef %7, i32 noundef %20, ptr noundef %0, i32 noundef 5, i32 noundef 1, i32 noundef 0, ptr noundef %3)
  %22 = load i32, ptr @hf_nano_extensions, align 4
  %23 = load i32, ptr @ett_nano_extensions, align 4
  %24 = tail call ptr @proto_tree_add_bitmask_ret_uint64(ptr noundef %7, ptr noundef %0, i32 noundef 6, i32 noundef %22, i32 noundef %23, ptr noundef nonnull @dissect_nano_header.nano_extensions, i32 noundef -2147483648, ptr noundef %4)
  ret void
}